; Function Attrs: mustprogress nounwind uwtable
define dso_local noundef zeroext i1 @_ZNK5clang13OpenCLOptions7isKnownEN4llvm9StringRefE(ptr noundef nonnull align 8 dereferenceable(24) %0, ptr %1, i64 %2) local_unnamed_addr #0 align 2 {
  %4 = tail call noundef i32 @_ZN4llvm13StringMapImpl4hashENS_9StringRefE(ptr %1, i64 %2) #11
  %5 = tail call noundef i32 @_ZNK4llvm13StringMapImpl7FindKeyENS_9StringRefEj(ptr noundef nonnull align 8 dereferenceable(24) %0, ptr %1, i64 %2, i32 noundef %4) #11
  %6 = icmp ne i32 %5, -1
  %7 = getelementptr inbounds nuw i8, ptr %0, i64 8
  %8 = load i32, ptr %7, align 8
  %9 = zext i32 %8 to i64
  %10 = sext i32 %5 to i64
  %11 = icmp ne i64 %10, %9
  %12 = select i1 %6, i1 %11, i1 false
  ret i1 %12
}